; Function Attrs: nounwind uwtable
define ptr @l_Lean_evalConst___at_Lean_ParserCompiler_CombinatorAttribute_runDeclFor___spec__2___rarg(ptr noundef %0, ptr noundef %1, ptr noundef %2, ptr noundef %3) local_unnamed_addr #0 {
  %5 = tail call ptr @lean_st_ref_get(ptr noundef %2, ptr noundef %3) #6
  %6 = getelementptr inbounds nuw i8, ptr %5, i64 8
  %7 = load ptr, ptr %6, align 8, !tbaa !4
  %8 = ptrtoint ptr %7 to i64
  %9 = and i64 %8, 1
  %.not = icmp eq i64 %9, 0
  br i1 %.not, label %10, label %lean_inc.exit22

10:                                               ; preds = %4
  %.val.i = load i32, ptr %7, align 4, !tbaa !8
  %11 = icmp sgt i32 %.val.i, 0
  br i1 %11, label %12, label %14, !prof !11

12:                                               ; preds = %10
  %13 = add nuw i32 %.val.i, 1
  store i32 %13, ptr %7, align 4, !tbaa !8
  br label %lean_inc.exit22

14:                                               ; preds = %10
  %.not.i32 = icmp eq i32 %.val.i, 0
  br i1 %.not.i32, label %lean_inc.exit22, label %15

15:                                               ; preds = %14
  tail call void @lean_inc_ref_cold(ptr noundef nonnull %7) #6
  br label %lean_inc.exit22

lean_inc.exit22:                                  ; preds = %15, %14, %12, %4
  %16 = getelementptr inbounds nuw i8, ptr %5, i64 16
  %17 = load ptr, ptr %16, align 8, !tbaa !4
  %18 = ptrtoint ptr %17 to i64
  %19 = and i64 %18, 1
  %.not39 = icmp eq i64 %19, 0
  br i1 %.not39, label %20, label %lean_inc.exit21

20:                                               ; preds = %lean_inc.exit22
  %.val.i33 = load i32, ptr %17, align 4, !tbaa !8
  %21 = icmp sgt i32 %.val.i33, 0
  br i1 %21, label %22, label %24, !prof !11

22:                                               ; preds = %20
  %23 = add nuw i32 %.val.i33, 1
  store i32 %23, ptr %17, align 4, !tbaa !8
  br label %lean_inc.exit21

24:                                               ; preds = %20
  %.not.i34 = icmp eq i32 %.val.i33, 0
  br i1 %.not.i34, label %lean_inc.exit21, label %25

25:                                               ; preds = %24
  tail call void @lean_inc_ref_cold(ptr noundef nonnull %17) #6
  br label %lean_inc.exit21

lean_inc.exit21:                                  ; preds = %25, %24, %22, %lean_inc.exit22
  %26 = ptrtoint ptr %5 to i64
  %27 = and i64 %26, 1
  %.not40 = icmp eq i64 %27, 0
  br i1 %.not40, label %28, label %lean_dec.exit25

28:                                               ; preds = %lean_inc.exit21
  %29 = load i32, ptr %5, align 4, !tbaa !8
  %30 = icmp sgt i32 %29, 1
  br i1 %30, label %31, label %33, !prof !11

31:                                               ; preds = %28
  %32 = add nsw i32 %29, -1
  store i32 %32, ptr %5, align 4, !tbaa !8
  br label %lean_dec.exit25

33:                                               ; preds = %28
  %.not.i = icmp eq i32 %29, 0
  br i1 %.not.i, label %lean_dec.exit25, label %34

34:                                               ; preds = %33
  tail call void @lean_dec_ref_cold(ptr noundef nonnull %5) #6
  br label %lean_dec.exit25

lean_dec.exit25:                                  ; preds = %34, %33, %31, %lean_inc.exit21
  %35 = getelementptr inbounds nuw i8, ptr %7, i64 8
  %36 = load ptr, ptr %35, align 8, !tbaa !4
  %37 = ptrtoint ptr %36 to i64
  %38 = and i64 %37, 1
  %.not41 = icmp eq i64 %38, 0
  br i1 %.not41, label %39, label %lean_inc.exit

39:                                               ; preds = %lean_dec.exit25
  %.val.i36 = load i32, ptr %36, align 4, !tbaa !8
  %40 = icmp sgt i32 %.val.i36, 0
  br i1 %40, label %41, label %43, !prof !11

41:                                               ; preds = %39
  %42 = add nuw i32 %.val.i36, 1
  store i32 %42, ptr %36, align 4, !tbaa !8
  br label %lean_inc.exit

43:                                               ; preds = %39
  %.not.i37 = icmp eq i32 %.val.i36, 0
  br i1 %.not.i37, label %lean_inc.exit, label %44

44:                                               ; preds = %43
  tail call void @lean_inc_ref_cold(ptr noundef nonnull %36) #6
  br label %lean_inc.exit

lean_inc.exit:                                    ; preds = %44, %43, %41, %lean_dec.exit25
  br i1 %.not, label %45, label %lean_dec.exit24

45:                                               ; preds = %lean_inc.exit
  %46 = load i32, ptr %7, align 4, !tbaa !8
  %47 = icmp sgt i32 %46, 1
  br i1 %47, label %48, label %50, !prof !11

48:                                               ; preds = %45
  %49 = add nsw i32 %46, -1
  store i32 %49, ptr %7, align 4, !tbaa !8
  br label %lean_dec.exit24

50:                                               ; preds = %45
  %.not.i26 = icmp eq i32 %46, 0
  br i1 %.not.i26, label %lean_dec.exit24, label %51

51:                                               ; preds = %50
  tail call void @lean_dec_ref_cold(ptr noundef nonnull %7) #6
  br label %lean_dec.exit24

lean_dec.exit24:                                  ; preds = %51, %50, %48, %lean_inc.exit
  %52 = getelementptr inbounds nuw i8, ptr %1, i64 24
  %53 = load ptr, ptr %52, align 8, !tbaa !4
  %54 = tail call ptr @lean_eval_const(ptr noundef %36, ptr noundef %53, ptr noundef %0) #6
  br i1 %.not41, label %55, label %lean_dec.exit23

55:                                               ; preds = %lean_dec.exit24
  %56 = load i32, ptr %36, align 4, !tbaa !8
  %57 = icmp sgt i32 %56, 1
  br i1 %57, label %58, label %60, !prof !11

58:                                               ; preds = %55
  %59 = add nsw i32 %56, -1
  store i32 %59, ptr %36, align 4, !tbaa !8
  br label %lean_dec.exit23

60:                                               ; preds = %55
  %.not.i28 = icmp eq i32 %56, 0
  br i1 %.not.i28, label %lean_dec.exit23, label %61

61:                                               ; preds = %60
  tail call void @lean_dec_ref_cold(ptr noundef nonnull %36) #6
  br label %lean_dec.exit23

lean_dec.exit23:                                  ; preds = %61, %60, %58, %lean_dec.exit24
  %62 = tail call ptr @l_Lean_ofExcept___at_Lean_ParserCompiler_CombinatorAttribute_runDeclFor___spec__3___rarg(ptr noundef %54, ptr noundef nonnull %1, ptr noundef %2, ptr noundef %17)
  %63 = ptrtoint ptr %54 to i64
  %64 = and i64 %63, 1
  %.not42 = icmp eq i64 %64, 0
  br i1 %.not42, label %65, label %lean_dec.exit

65:                                               ; preds = %lean_dec.exit23
  %66 = load i32, ptr %54, align 4, !tbaa !8
  %67 = icmp sgt i32 %66, 1
  br i1 %67, label %68, label %70, !prof !11

68:                                               ; preds = %65
  %69 = add nsw i32 %66, -1
  store i32 %69, ptr %54, align 4, !tbaa !8
  br label %lean_dec.exit

70:                                               ; preds = %65
  %.not.i30 = icmp eq i32 %66, 0
  br i1 %.not.i30, label %lean_dec.exit, label %71

71:                                               ; preds = %70
  tail call void @lean_dec_ref_cold(ptr noundef nonnull %54) #6
  br label %lean_dec.exit

lean_dec.exit:                                    ; preds = %71, %70, %68, %lean_dec.exit23
  ret ptr %62
}